; Function Attrs: mustprogress nounwind uwtable
define internal fastcc void @_ZNSt4pairIN5Yosys5RTLIL8IdStringEN12_GLOBAL__N_17LUTTypeEED2Ev(ptr nocapture noundef nonnull readonly align 8 dereferenceable(72) %0) unnamed_addr #3 align 2 personality ptr @__gxx_personality_v0 {
  %2 = getelementptr inbounds i8, ptr %0, i64 8
  tail call fastcc void @_ZN12_GLOBAL__N_17LUTTypeD2Ev(ptr noundef nonnull align 8 dereferenceable(60) %2) #18
  %3 = load i32, ptr %0, align 8
  %4 = load i8, ptr @_ZN5Yosys5RTLIL8IdString17destruct_guard_okE, align 1
  %5 = and i8 %4, 1
  %6 = icmp ne i8 %5, 0
  %7 = icmp ne i32 %3, 0
  %or.cond.i.i = and i1 %7, %6
  br i1 %or.cond.i.i, label %8, label %_ZN5Yosys5RTLIL8IdStringD2Ev.exit

8:                                                ; preds = %1
  %9 = sext i32 %3 to i64
  %10 = load ptr, ptr @_ZN5Yosys5RTLIL8IdString24global_refcount_storage_E, align 8
  %11 = getelementptr inbounds i32, ptr %10, i64 %9
  %12 = load i32, ptr %11, align 4
  %13 = add nsw i32 %12, -1
  store i32 %13, ptr %11, align 4
  %14 = icmp sgt i32 %12, 1
  br i1 %14, label %_ZN5Yosys5RTLIL8IdStringD2Ev.exit, label %15

15:                                               ; preds = %8
  invoke void @_ZN5Yosys5RTLIL8IdString14free_referenceEi(i32 noundef %3)
          to label %_ZN5Yosys5RTLIL8IdStringD2Ev.exit unwind label %16

16:                                               ; preds = %15
  %17 = landingpad { ptr, i32 }
          catch ptr null
  %18 = extractvalue { ptr, i32 } %17, 0
  tail call void @__clang_call_terminate(ptr %18) #22
  unreachable

_ZN5Yosys5RTLIL8IdStringD2Ev.exit:                ; preds = %1, %8, %15
  ret void
}